; Function Attrs: mustprogress uwtable
define dso_local void @_ZNK15cmStateSnapshot12GetDirectoryEv(ptr dead_on_unwind noalias nonnull writable sret(%class.cmStateDirectory) align 8 %0, ptr noundef nonnull align 8 dereferenceable(24) %1) local_unnamed_addr #4 align 2 {
  %3 = getelementptr inbounds nuw i8, ptr %1, i64 8
  %4 = load ptr, ptr %3, align 8
  %5 = getelementptr inbounds nuw i8, ptr %1, i64 16
  %6 = load i64, ptr %5, align 8
  %7 = load ptr, ptr %4, align 8
  %8 = getelementptr %"struct.cmStateDetail::SnapshotDataType", ptr %7, i64 %6
  %9 = getelementptr i8, ptr %8, i64 -104
  %.sroa.0.0.copyload = load ptr, ptr %9, align 8
  %.sroa.2.0..sroa_idx = getelementptr i8, ptr %8, i64 -96
  %.sroa.2.0.copyload = load i64, ptr %.sroa.2.0..sroa_idx, align 8
  tail call void @_ZN16cmStateDirectoryC1EN12cmLinkedTreeIN13cmStateDetail29BuildsystemDirectoryStateTypeEE8iteratorERK15cmStateSnapshot(ptr noundef nonnull align 8 dereferenceable(40) %0, ptr %.sroa.0.0.copyload, i64 %.sroa.2.0.copyload, ptr noundef nonnull align 8 dereferenceable(24) %1)
  ret void
}